target datalayout = "e-m:e-p270:32:32-p271:32:32-p272:64:64-i64:64-i128:128-f80:128-n8:16:32:64-S128"
target triple = "x86_64-pc-linux-gnu"

%struct.H5B2_test_rec_t = type { i64, i64 }

@H5B2_init_g = external global i8, align 1
@H5_libterm_g = external global i8, align 1
@.str.15 = private unnamed_addr constant [1 x i8] zeroinitializer, align 1
@.str.16 = private unnamed_addr constant [8 x i8] c"Record:\00", align 1
@.str.17 = private unnamed_addr constant [20 x i8] c"%*s%-*s (%lu, %lu)\0A\00", align 1

; Function Attrs: nounwind uwtable
define internal i32 @H5B2__test2_debug(ptr noundef %0, i32 noundef %1, i32 noundef %2, ptr noundef %3, ptr noundef %4) #0 {
  %6 = alloca ptr, align 8
  %7 = alloca i32, align 4
  %8 = alloca i32, align 4
  %9 = alloca ptr, align 8
  %10 = alloca ptr, align 8
  store ptr %0, ptr %6, align 8, !tbaa !30
  store i32 %1, ptr %7, align 4, !tbaa !21
  store i32 %2, ptr %8, align 4, !tbaa !21
  store ptr %3, ptr %9, align 8, !tbaa !3
  store ptr %4, ptr %10, align 8, !tbaa !3
  %11 = load i8, ptr @H5B2_init_g, align 1, !tbaa !9, !range !11, !noundef !12
  %12 = trunc i8 %11 to i1
  br i1 %12, label %17, label %13

13:                                               ; preds = %5
  %14 = load i8, ptr @H5_libterm_g, align 1, !tbaa !9, !range !11, !noundef !12
  %15 = trunc i8 %14 to i1
  %16 = xor i1 %15, true
  br label %17

17:                                               ; preds = %13, %5
  %18 = phi i1 [ true, %5 ], [ %16, %13 ]
  %19 = xor i1 %18, true
  %20 = xor i1 %19, true
  %21 = zext i1 %20 to i32
  %22 = sext i32 %21 to i64
  %23 = call i64 @llvm.expect.i64(i64 %22, i64 1)
  %24 = icmp ne i64 %23, 0
  br i1 %24, label %25, label %36

25:                                               ; preds = %17
  %26 = load ptr, ptr %6, align 8, !tbaa !30
  %27 = load i32, ptr %7, align 4, !tbaa !21
  %28 = load i32, ptr %8, align 4, !tbaa !21
  %29 = load ptr, ptr %9, align 8, !tbaa !3
  %30 = getelementptr inbounds nuw %struct.H5B2_test_rec_t, ptr %29, i32 0, i32 0
  %31 = load i64, ptr %30, align 8, !tbaa !33
  %32 = load ptr, ptr %9, align 8, !tbaa !3
  %33 = getelementptr inbounds nuw %struct.H5B2_test_rec_t, ptr %32, i32 0, i32 1
  %34 = load i64, ptr %33, align 8, !tbaa !37
  %35 = call i32 (ptr, ptr, ...) @fprintf(ptr noundef %26, ptr noundef @.str.17, i32 noundef %27, ptr noundef @.str.15, i32 noundef %28, ptr noundef @.str.16, i64 noundef %31, i64 noundef %34) #6
  br label %36

36:                                               ; preds = %25, %17
  ret i32 0
}