; Function Attrs: nofree nounwind uwtable
define internal noundef i32 @H5B2__test2_debug(ptr noundef captures(none) %0, i32 noundef %1, i32 noundef %2, ptr noundef readonly captures(none) %3, ptr readnone captures(none) %4) #3 {
  %6 = load i8, ptr @H5B2_init_g, align 1, !tbaa !3, !range !7, !noundef !8
  %7 = trunc nuw i8 %6 to i1
  %8 = load i8, ptr @H5_libterm_g, align 1, !range !7
  %9 = trunc nuw i8 %8 to i1
  %10 = xor i1 %9, true
  %11 = select i1 %7, i1 true, i1 %10
  br i1 %11, label %12, label %17, !prof !9

12:                                               ; preds = %5
  %13 = load i64, ptr %3, align 8, !tbaa !21
  %14 = getelementptr inbounds nuw i8, ptr %3, i64 8
  %15 = load i64, ptr %14, align 8, !tbaa !24
  %16 = tail call i32 (ptr, ptr, ...) @fprintf(ptr noundef %0, ptr noundef nonnull @.str.17, i32 noundef %1, ptr noundef nonnull @.str.15, i32 noundef %2, ptr noundef nonnull @.str.16, i64 noundef %13, i64 noundef %15) #8
  br label %17

17:                                               ; preds = %12, %5
  ret i32 0
}